target datalayout = "e-m:e-p270:32:32-p271:32:32-p272:64:64-i64:64-i128:128-f80:128-n8:16:32:64-S128"
target triple = "x86_64-pc-linux-gnu"

%"struct.spacer::collect_rationals_ns::proc" = type { ptr, %class.arith_util, ptr }
%class.arith_util = type { ptr, ptr }
%class.ast_fast_mark = type { %class.ptr_buffer.100 }
%class.ptr_buffer.100 = type { %class.buffer.101 }
%class.buffer.101 = type { ptr, i32, i32, [128 x i8] }

; Function Attrs: mustprogress nounwind uwtable
define linkonce_odr hidden void @_ZN6bufferIP3astLb0ELj16EEC2Ev(ptr noundef nonnull align 8 dereferenceable(144) %0) unnamed_addr #6 comdat align 2 {
  %2 = alloca ptr, align 8
  store ptr %0, ptr %2, align 8, !tbaa !320
  %3 = load ptr, ptr %2, align 8
  %4 = getelementptr inbounds nuw %class.buffer.101, ptr %3, i32 0, i32 0
  %5 = getelementptr inbounds nuw %class.buffer.101, ptr %3, i32 0, i32 3
  %6 = getelementptr inbounds [128 x i8], ptr %5, i64 0, i64 0
  store ptr %6, ptr %4, align 8, !tbaa !322
  %7 = getelementptr inbounds nuw %class.buffer.101, ptr %3, i32 0, i32 1
  store i32 0, ptr %7, align 8, !tbaa !325
  %8 = getelementptr inbounds nuw %class.buffer.101, ptr %3, i32 0, i32 2
  store i32 16, ptr %8, align 4, !tbaa !326
  ret void
}

; Function Attrs: inlinehint mustprogress nounwind uwtable
define linkonce_odr hidden void @_ZN10ptr_bufferI3astLj16EEC2Ev(ptr noundef nonnull align 8 dereferenceable(144) %0) unnamed_addr #8 comdat align 2 {
  %2 = alloca ptr, align 8
  store ptr %0, ptr %2, align 8, !tbaa !318
  %3 = load ptr, ptr %2, align 8
  call void @_ZN6bufferIP3astLb0ELj16EEC2Ev(ptr noundef nonnull align 8 dereferenceable(144) %3) #3
  ret void
}

; Function Attrs: inlinehint mustprogress nounwind uwtable
define linkonce_odr hidden void @_ZN13ast_fast_markILj1EEC2Ev(ptr noundef nonnull align 8 dereferenceable(144) %0) unnamed_addr #8 comdat align 2 {
  %2 = alloca ptr, align 8
  store ptr %0, ptr %2, align 8, !tbaa !213
  %3 = load ptr, ptr %2, align 8
  %4 = getelementptr inbounds nuw %class.ast_fast_mark, ptr %3, i32 0, i32 0
  call void @_ZN10ptr_bufferI3astLj16EEC2Ev(ptr noundef nonnull align 8 dereferenceable(144) %4) #3
  ret void
}

; Function Attrs: mustprogress uwtable
define linkonce_odr hidden void @_Z19quick_for_each_exprIN6spacer20collect_rationals_ns4procEEvRT_P4expr(ptr noundef nonnull align 8 dereferenceable(32) %0, ptr noundef %1) #4 comdat personality ptr @__gxx_personality_v0 {
  %3 = alloca ptr, align 8
  %4 = alloca ptr, align 8
  %5 = alloca %class.ast_fast_mark, align 8
  %6 = alloca ptr, align 8
  %7 = alloca i32, align 4
  store ptr %0, ptr %3, align 8, !tbaa !12
  store ptr %1, ptr %4, align 8, !tbaa !3
  call void @llvm.lifetime.start.p0(i64 144, ptr %5) #3
  call void @_ZN13ast_fast_markILj1EEC2Ev(ptr noundef nonnull align 8 dereferenceable(144) %5) #3
  %8 = load ptr, ptr %3, align 8, !tbaa !12
  %9 = load ptr, ptr %4, align 8, !tbaa !3
  invoke void @_Z18for_each_expr_coreIN6spacer20collect_rationals_ns4procE13ast_fast_markILj1EELb0ELb0EEvRT_RT0_P4expr(ptr noundef nonnull align 8 dereferenceable(32) %8, ptr noundef nonnull align 8 dereferenceable(144) %5, ptr noundef %9)
          to label %10 unwind label %11

10:                                               ; preds = %2
  call void @_ZN13ast_fast_markILj1EED2Ev(ptr noundef nonnull align 8 dereferenceable(144) %5) #3
  call void @llvm.lifetime.end.p0(i64 144, ptr %5) #3
  ret void

11:                                               ; preds = %2
  %12 = landingpad { ptr, i32 }
          cleanup
  %13 = extractvalue { ptr, i32 } %12, 0
  store ptr %13, ptr %6, align 8
  %14 = extractvalue { ptr, i32 } %12, 1
  store i32 %14, ptr %7, align 4
  call void @_ZN13ast_fast_markILj1EED2Ev(ptr noundef nonnull align 8 dereferenceable(144) %5) #3
  call void @llvm.lifetime.end.p0(i64 144, ptr %5) #3
  br label %15

15:                                               ; preds = %11
  %16 = load ptr, ptr %6, align 8
  %17 = load i32, ptr %7, align 4
  %18 = insertvalue { ptr, i32 } poison, ptr %16, 0
  %19 = insertvalue { ptr, i32 } %18, i32 %17, 1
  resume { ptr, i32 } %19
}

; Function Attrs: mustprogress uwtable
define linkonce_odr hidden void @_ZN6spacer20collect_rationals_ns4procC2ER11ast_managerR6vectorI8rationalLb1EjE(ptr noundef nonnull align 8 dereferenceable(32) %0, ptr noundef nonnull align 8 dereferenceable(976) %1, ptr noundef nonnull align 8 dereferenceable(8) %2) unnamed_addr #4 comdat align 2 {
  %4 = alloca ptr, align 8
  %5 = alloca ptr, align 8
  %6 = alloca ptr, align 8
  store ptr %0, ptr %4, align 8, !tbaa !12
  store ptr %1, ptr %5, align 8, !tbaa !10
  store ptr %2, ptr %6, align 8, !tbaa !8
  %7 = load ptr, ptr %4, align 8
  %8 = getelementptr inbounds nuw %"struct.spacer::collect_rationals_ns::proc", ptr %7, i32 0, i32 0
  %9 = load ptr, ptr %5, align 8, !tbaa !10
  store ptr %9, ptr %8, align 8, !tbaa !10
  %10 = getelementptr inbounds nuw %"struct.spacer::collect_rationals_ns::proc", ptr %7, i32 0, i32 1
  %11 = getelementptr inbounds nuw %"struct.spacer::collect_rationals_ns::proc", ptr %7, i32 0, i32 0
  %12 = load ptr, ptr %11, align 8, !tbaa !14
  call void @_ZN10arith_utilC1ER11ast_manager(ptr noundef nonnull align 8 dereferenceable(16) %10, ptr noundef nonnull align 8 dereferenceable(976) %12)
  %13 = getelementptr inbounds nuw %"struct.spacer::collect_rationals_ns::proc", ptr %7, i32 0, i32 2
  %14 = load ptr, ptr %6, align 8, !tbaa !8
  store ptr %14, ptr %13, align 8, !tbaa !8
  ret void
}

; Function Attrs: mustprogress uwtable
define hidden void @_ZN6spacer17collect_rationalsEP4exprR6vectorI8rationalLb1EjER11ast_manager(ptr noundef %0, ptr noundef nonnull align 8 dereferenceable(8) %1, ptr noundef nonnull align 8 dereferenceable(976) %2) #4 {
  %4 = alloca ptr, align 8
  %5 = alloca ptr, align 8
  %6 = alloca ptr, align 8
  %7 = alloca %"struct.spacer::collect_rationals_ns::proc", align 8
  store ptr %0, ptr %4, align 8, !tbaa !3
  store ptr %1, ptr %5, align 8, !tbaa !8
  store ptr %2, ptr %6, align 8, !tbaa !10
  call void @llvm.lifetime.start.p0(i64 32, ptr %7) #3
  %8 = load ptr, ptr %6, align 8, !tbaa !10
  %9 = load ptr, ptr %5, align 8, !tbaa !8
  call void @_ZN6spacer20collect_rationals_ns4procC2ER11ast_managerR6vectorI8rationalLb1EjE(ptr noundef nonnull align 8 dereferenceable(32) %7, ptr noundef nonnull align 8 dereferenceable(976) %8, ptr noundef nonnull align 8 dereferenceable(8) %9)
  %10 = load ptr, ptr %4, align 8, !tbaa !3
  call void @_Z19quick_for_each_exprIN6spacer20collect_rationals_ns4procEEvRT_P4expr(ptr noundef nonnull align 8 dereferenceable(32) %7, ptr noundef %10)
  call void @llvm.lifetime.end.p0(i64 32, ptr %7) #3
  ret void
}