; Function Attrs: mustprogress uwtable
define hidden void @_ZN6spacer17collect_rationalsEP4exprR6vectorI8rationalLb1EjER11ast_manager(ptr noundef %0, ptr noundef nonnull align 8 dereferenceable(8) %1, ptr noundef nonnull align 8 dereferenceable(976) %2) local_unnamed_addr #3 personality ptr @__gxx_personality_v0 {
  %4 = alloca %class.ast_fast_mark, align 8
  %5 = alloca %"struct.spacer::collect_rationals_ns::proc", align 8
  call void @llvm.lifetime.start.p0(i64 32, ptr nonnull %5) #21
  store ptr %2, ptr %5, align 8, !tbaa !3
  %6 = getelementptr inbounds nuw i8, ptr %5, i64 8
  call void @_ZN10arith_utilC1ER11ast_manager(ptr noundef nonnull align 8 dereferenceable(16) %6, ptr noundef nonnull align 8 dereferenceable(976) %2)
  %7 = getelementptr inbounds nuw i8, ptr %5, i64 24
  store ptr %1, ptr %7, align 8, !tbaa !8
  call void @llvm.lifetime.start.p0(i64 144, ptr nonnull %4) #21
  %8 = getelementptr inbounds nuw i8, ptr %4, i64 16
  store ptr %8, ptr %4, align 8, !tbaa !10
  %9 = getelementptr inbounds nuw i8, ptr %4, i64 8
  store i32 0, ptr %9, align 8, !tbaa !15
  %10 = getelementptr inbounds nuw i8, ptr %4, i64 12
  store i32 16, ptr %10, align 4, !tbaa !16
  invoke void @_Z18for_each_expr_coreIN6spacer20collect_rationals_ns4procE13ast_fast_markILj1EELb0ELb0EEvRT_RT0_P4expr(ptr noundef nonnull align 8 dereferenceable(32) %5, ptr noundef nonnull align 8 dereferenceable(144) %4, ptr noundef %0)
          to label %11 unwind label %27

11:                                               ; preds = %3
  %12 = load ptr, ptr %4, align 8, !tbaa !10
  %13 = load i32, ptr %9, align 8, !tbaa !15
  %14 = zext i32 %13 to i64
  %15 = getelementptr inbounds nuw ptr, ptr %12, i64 %14
  %.not8.i.i.i = icmp eq i32 %13, 0
  br i1 %.not8.i.i.i, label %.loopexit.i.i, label %.lr.ph.i.i.i

.lr.ph.i.i.i:                                     ; preds = %11, %.lr.ph.i.i.i
  %.09.i.i.i = phi ptr [ %20, %.lr.ph.i.i.i ], [ %12, %11 ]
  %16 = load ptr, ptr %.09.i.i.i, align 8, !tbaa !17
  %17 = getelementptr inbounds nuw i8, ptr %16, i64 4
  %18 = load i32, ptr %17, align 4
  %19 = and i32 %18, -65537
  store i32 %19, ptr %17, align 4
  %20 = getelementptr inbounds nuw i8, ptr %.09.i.i.i, i64 8
  %.not.i.i.i = icmp eq ptr %20, %15
  br i1 %.not.i.i.i, label %.loopexit.loopexit.i.i, label %.lr.ph.i.i.i

.loopexit.loopexit.i.i:                           ; preds = %.lr.ph.i.i.i
  %.pre.i.i = load ptr, ptr %4, align 8, !tbaa !10
  br label %.loopexit.i.i

.loopexit.i.i:                                    ; preds = %.loopexit.loopexit.i.i, %11
  %21 = phi ptr [ %.pre.i.i, %.loopexit.loopexit.i.i ], [ %12, %11 ]
  store i32 0, ptr %9, align 8, !tbaa !15
  %.not.i.i.i.i.i = icmp eq ptr %21, %8
  %22 = icmp eq ptr %21, null
  %or.cond.i.i.i.i.i = or i1 %.not.i.i.i.i.i, %22
  br i1 %or.cond.i.i.i.i.i, label %_Z19quick_for_each_exprIN6spacer20collect_rationals_ns4procEEvRT_P4expr.exit, label %23

23:                                               ; preds = %.loopexit.i.i
  invoke void @_ZN6memory10deallocateEPv(ptr noundef nonnull %21)
          to label %_Z19quick_for_each_exprIN6spacer20collect_rationals_ns4procEEvRT_P4expr.exit unwind label %24

24:                                               ; preds = %23
  %25 = landingpad { ptr, i32 }
          catch ptr null
  %26 = extractvalue { ptr, i32 } %25, 0
  call void @__clang_call_terminate(ptr %26) #22
  unreachable

27:                                               ; preds = %3
  %28 = landingpad { ptr, i32 }
          cleanup
  call void @_ZN13ast_fast_markILj1EED2Ev(ptr noundef nonnull align 8 dereferenceable(144) %4) #21
  call void @llvm.lifetime.end.p0(i64 144, ptr nonnull %4) #21
  resume { ptr, i32 } %28

_Z19quick_for_each_exprIN6spacer20collect_rationals_ns4procEEvRT_P4expr.exit: ; preds = %.loopexit.i.i, %23
  call void @llvm.lifetime.end.p0(i64 144, ptr nonnull %4) #21
  call void @llvm.lifetime.end.p0(i64 32, ptr nonnull %5) #21
  ret void
}